ccollections
OrderedDict
p0
((lp1
(lp2
S'epoch'
p3
a(lp4
I0
aI1
aI2
aI3
aI4
aI5
aI6
aI7
aI8
aI9
aI10
aI11
aI12
aI13
aI14
aI15
aI16
aI17
aI18
aI19
aI20
aI21
aI22
aI23
aI24
aI25
aI26
aI27
aI28
aI29
aI30
aI31
aI32
aI33
aI34
aI35
aI36
aI37
aI38
aI39
aI40
aI41
aI42
aI43
aI44
aI45
aI46
aI47
aI48
aI49
aI50
aI51
aI52
aI53
aI54
aI55
aI56
aI57
aI58
aI59
aI60
aI61
aI62
aI63
aI64
aI65
aI66
aI67
aI68
aI69
aI70
aI71
aI72
aI73
aI74
aI75
aI76
aI77
aI78
aI79
aI80
aI81
aI82
aI83
aI84
aI85
aI86
aI87
aI88
aI89
aI90
aI91
aI92
aI93
aI94
aI95
aI96
aI97
aI98
aI99
aI100
aI101
aI102
aI103
aI104
aI105
aI106
aI107
aI108
aI109
aI110
aI111
aI112
aI113
aI114
aI115
aI116
aI117
aI118
aI119
aI120
aI121
aI122
aI123
aI124
aI125
aI126
aI127
aI128
aI129
aI130
aI131
aI132
aI133
aI134
aI135
aI136
aI137
aI138
aI139
aI140
aI141
aI142
aI143
aI144
aI145
aaa(lp5
S'error'
p6
a(lp7
cnumpy.core.multiarray
_reconstruct
p8
(cnumpy
ndarray
p9
(I0
tp10
S'b'
p11
tp12
Rp13
(I1
(tcnumpy
dtype
p14
(S'f8'
p15
I0
I1
tp16
Rp17
(I3
S'<'
p18
NNNI-1
I-1
I0
tp19
bI00
S'b\xaf\x1a\xaf9\x1d\xf5?'
p20
tp21
bag8
(g9
(I0
tp22
g11
tp23
Rp24
(I1
(tg17
I00
S'B\xb6\x1eOL\xd9\xf1?'
p25
tp26
bag8
(g9
(I0
tp27
g11
tp28
Rp29
(I1
(tg17
I00
S'\xa0\xc5zWAn\xf0?'
p30
tp31
bag8
(g9
(I0
tp32
g11
tp33
Rp34
(I1
(tg17
I00
S'\xfb\xd8G\xf0\x8d\x84\xee?'
p35
tp36
bag8
(g9
(I0
tp37
g11
tp38
Rp39
(I1
(tg17
I00
S'\xcf\xe9\x1b\xb5,{\xec?'
p40
tp41
bag8
(g9
(I0
tp42
g11
tp43
Rp44
(I1
(tg17
I00
S'\xd1\xc8$\x0f\xeb8\xeb?'
p45
tp46
bag8
(g9
(I0
tp47
g11
tp48
Rp49
(I1
(tg17
I00
S'\xbeuE\x0c\xc6\xed\xea?'
p50
tp51
bag8
(g9
(I0
tp52
g11
tp53
Rp54
(I1
(tg17
I00
S'\x9c \xee\xe0\xadR\xeb?'
p55
tp56
bag8
(g9
(I0
tp57
g11
tp58
Rp59
(I1
(tg17
I00
S'\xd9\xb6\xbc\xac\xc6\x0f\xec?'
p60
tp61
bag8
(g9
(I0
tp62
g11
tp63
Rp64
(I1
(tg17
I00
S'\xbe\x85\xd5\xa0}\xf6\xec?'
p65
tp66
bag8
(g9
(I0
tp67
g11
tp68
Rp69
(I1
(tg17
I00
S'Mc\x1a\x95\x83\x1b\xee?'
p70
tp71
bag8
(g9
(I0
tp72
g11
tp73
Rp74
(I1
(tg17
I00
S'\x15\xc4\xf5#gj\xef?'
p75
tp76
bag8
(g9
(I0
tp77
g11
tp78
Rp79
(I1
(tg17
I00
S'\xe3\xfah\xeb\xca^\xf0?'
p80
tp81
bag8
(g9
(I0
tp82
g11
tp83
Rp84
(I1
(tg17
I00
S'\x9a\xa0\x18|,\x1c\xf1?'
p85
tp86
bag8
(g9
(I0
tp87
g11
tp88
Rp89
(I1
(tg17
I00
S'YD\xc9Mw\xe7\xf1?'
p90
tp91
bag8
(g9
(I0
tp92
g11
tp93
Rp94
(I1
(tg17
I00
S'\x12\xa07P\xf5\xbe\xf2?'
p95
tp96
bag8
(g9
(I0
tp97
g11
tp98
Rp99
(I1
(tg17
I00
S'\xea\xf2\xe6\xcb\xa9\xa0\xf3?'
p100
tp101
bag8
(g9
(I0
tp102
g11
tp103
Rp104
(I1
(tg17
I00
S't\x98\x90;\xfb\x80\xf4?'
p105
tp106
bag8
(g9
(I0
tp107
g11
tp108
Rp109
(I1
(tg17
I00
S'|.V\xc3\xd0i\xf5?'
p110
tp111
bag8
(g9
(I0
tp112
g11
tp113
Rp114
(I1
(tg17
I00
S"\xe4_&0'd\xf6?"
p115
tp116
bag8
(g9
(I0
tp117
g11
tp118
Rp119
(I1
(tg17
I00
S'\xbe\xe6\x86\xd6\xdf_\xf7?'
p120
tp121
bag8
(g9
(I0
tp122
g11
tp123
Rp124
(I1
(tg17
I00
S'\xd9\xd3=i\x1dl\xf8?'
p125
tp126
bag8
(g9
(I0
tp127
g11
tp128
Rp129
(I1
(tg17
I00
S'\xb9e\xd9`\x88{\xf9?'
p130
tp131
bag8
(g9
(I0
tp132
g11
tp133
Rp134
(I1
(tg17
I00
S'\x9c{K\xda-\x99\xfa?'
p135
tp136
bag8
(g9
(I0
tp137
g11
tp138
Rp139
(I1
(tg17
I00
S'\xeb\xfb\x95\x01O\xaa\xfb?'
p140
tp141
bag8
(g9
(I0
tp142
g11
tp143
Rp144
(I1
(tg17
I00
S'\x926\xc7\x0bR\xcf\xfc?'
p145
tp146
bag8
(g9
(I0
tp147
g11
tp148
Rp149
(I1
(tg17
I00
S'\xdd\x00\xde\x94\xa7\xf3\xfd?'
p150
tp151
bag8
(g9
(I0
tp152
g11
tp153
Rp154
(I1
(tg17
I00
S'\x91\xa3\xce\x96\xfa\x1c\xff?'
p155
tp156
bag8
(g9
(I0
tp157
g11
tp158
Rp159
(I1
(tg17
I00
S'{\x9a\x98\x90\xe4)\x00@'
p160
tp161
bag8
(g9
(I0
tp162
g11
tp163
Rp164
(I1
(tg17
I00
S'k$aV\xc0\xc0\x00@'
p165
tp166
bag8
(g9
(I0
tp167
g11
tp168
Rp169
(I1
(tg17
I00
S'\xa7\xc2P\xad2_\x01@'
p170
tp171
bag8
(g9
(I0
tp172
g11
tp173
Rp174
(I1
(tg17
I00
S'\xeb+\xd1\x98\x15\xf8\x01@'
p175
tp176
bag8
(g9
(I0
tp177
g11
tp178
Rp179
(I1
(tg17
I00
S'\xb7u\x89\xa6v\x96\x02@'
p180
tp181
bag8
(g9
(I0
tp182
g11
tp183
Rp184
(I1
(tg17
I00
S'\xb7\xcf\x88S\x851\x03@'
p185
tp186
bag8
(g9
(I0
tp187
g11
tp188
Rp189
(I1
(tg17
I00
S'\x99\xaeS\x0f\x8f\xd5\x03@'
p190
tp191
bag8
(g9
(I0
tp192
g11
tp193
Rp194
(I1
(tg17
I00
S'9\xbel\xec\x90x\x04@'
p195
tp196
bag8
(g9
(I0
tp197
g11
tp198
Rp199
(I1
(tg17
I00
S'\xb3\x05E\x15\xe9\x14\x05@'
p200
tp201
bag8
(g9
(I0
tp202
g11
tp203
Rp204
(I1
(tg17
I00
S';\xb9\xdb"g\xb5\x05@'
p205
tp206
bag8
(g9
(I0
tp207
g11
tp208
Rp209
(I1
(tg17
I00
S'ZA\xbaK\xa5Q\x06@'
p210
tp211
bag8
(g9
(I0
tp212
g11
tp213
Rp214
(I1
(tg17
I00
S'\xbb4\xf8\xb4\xc7\xed\x06@'
p215
tp216
bag8
(g9
(I0
tp217
g11
tp218
Rp219
(I1
(tg17
I00
S'\xcd\xe0\xc8\xe3\xff\x89\x07@'
p220
tp221
bag8
(g9
(I0
tp222
g11
tp223
Rp224
(I1
(tg17
I00
S'\xa9\xfe\x83Y\xd0(\x08@'
p225
tp226
bag8
(g9
(I0
tp227
g11
tp228
Rp229
(I1
(tg17
I00
S'Cme\xb9\xf4\xc3\x08@'
p230
tp231
bag8
(g9
(I0
tp232
g11
tp233
Rp234
(I1
(tg17
I00
S'\x15\x91\x19\xc2?b\t@'
p235
tp236
bag8
(g9
(I0
tp237
g11
tp238
Rp239
(I1
(tg17
I00
S'1\xe8W\x8c\xd7\x03\n@'
p240
tp241
bag8
(g9
(I0
tp242
g11
tp243
Rp244
(I1
(tg17
I00
S'>\x1c7aY\xa4\n@'
p245
tp246
bag8
(g9
(I0
tp247
g11
tp248
Rp249
(I1
(tg17
I00
S'\xa9\x87r-x0\x0b@'
p250
tp251
bag8
(g9
(I0
tp252
g11
tp253
Rp254
(I1
(tg17
I00
S'\x07\x87x\xb2@\xdb\x0b@'
p255
tp256
bag8
(g9
(I0
tp257
g11
tp258
Rp259
(I1
(tg17
I00
S'd\xfd\x9fs9v\x0c@'
p260
tp261
bag8
(g9
(I0
tp262
g11
tp263
Rp264
(I1
(tg17
I00
S'\x7f\xd9_\xdb\xe1\x02\r@'
p265
tp266
bag8
(g9
(I0
tp267
g11
tp268
Rp269
(I1
(tg17
I00
S'"\x87\xfe\x03=\xaa\r@'
p270
tp271
bag8
(g9
(I0
tp272
g11
tp273
Rp274
(I1
(tg17
I00
S'\xc4\xfc\xd8z+B\x0e@'
p275
tp276
bag8
(g9
(I0
tp277
g11
tp278
Rp279
(I1
(tg17
I00
S'T\xa4oMj\xe1\x0e@'
p280
tp281
bag8
(g9
(I0
tp282
g11
tp283
Rp284
(I1
(tg17
I00
S'\x86akt\xe0\x85\x0f@'
p285
tp286
bag8
(g9
(I0
tp287
g11
tp288
Rp289
(I1
(tg17
I00
S'\x99`\xe3\xe0J\x13\x10@'
p290
tp291
bag8
(g9
(I0
tp292
g11
tp293
Rp294
(I1
(tg17
I00
S'\xb8\xd3\xc9L\x91a\x10@'
p295
tp296
bag8
(g9
(I0
tp297
g11
tp298
Rp299
(I1
(tg17
I00
S'\x9f\xa1\x94\n\xc8\xae\x10@'
p300
tp301
bag8
(g9
(I0
tp302
g11
tp303
Rp304
(I1
(tg17
I00
S'~1\xdc\x17)\xfe\x10@'
p305
tp306
bag8
(g9
(I0
tp307
g11
tp308
Rp309
(I1
(tg17
I00
S'\x8b;7\xa2/O\x11@'
p310
tp311
bag8
(g9
(I0
tp312
g11
tp313
Rp314
(I1
(tg17
I00
S">Ri'\xa4\x97\x11@"
p315
tp316
bag8
(g9
(I0
tp317
g11
tp318
Rp319
(I1
(tg17
I00
S'\xaf/\xcbh\xa3\xdc\x11@'
p320
tp321
bag8
(g9
(I0
tp322
g11
tp323
Rp324
(I1
(tg17
I00
S'\xc7\xea\xa3\xd7\x16*\x12@'
p325
tp326
bag8
(g9
(I0
tp327
g11
tp328
Rp329
(I1
(tg17
I00
S'\xa0Q\x88\xe5zq\x12@'
p330
tp331
bag8
(g9
(I0
tp332
g11
tp333
Rp334
(I1
(tg17
I00
S'=\x97\x17\xefh\xbb\x12@'
p335
tp336
bag8
(g9
(I0
tp337
g11
tp338
Rp339
(I1
(tg17
I00
S'\x89O\x1f\xed>\x01\x13@'
p340
tp341
bag8
(g9
(I0
tp342
g11
tp343
Rp344
(I1
(tg17
I00
S'\xb5\xb8\x1d\xfd\xd3<\x13@'
p345
tp346
bag8
(g9
(I0
tp347
g11
tp348
Rp349
(I1
(tg17
I00
S'*\x17b\x05\t7\x13@'
p350
tp351
bag8
(g9
(I0
tp352
g11
tp353
Rp354
(I1
(tg17
I00
S'\xd8\xb1\x98h\x1f\x88\x13@'
p355
tp356
bag8
(g9
(I0
tp357
g11
tp358
Rp359
(I1
(tg17
I00
S"\xef'\xd1\xde\x1f\xc4\x13@"
p360
tp361
bag8
(g9
(I0
tp362
g11
tp363
Rp364
(I1
(tg17
I00
S'!\xbc\xdb;2\xfb\x13@'
p365
tp366
bag8
(g9
(I0
tp367
g11
tp368
Rp369
(I1
(tg17
I00
S'\xf3\xfcJG\xf92\x14@'
p370
tp371
bag8
(g9
(I0
tp372
g11
tp373
Rp374
(I1
(tg17
I00
S'tj\xbc\xd3\x9fi\x14@'
p375
tp376
bag8
(g9
(I0
tp377
g11
tp378
Rp379
(I1
(tg17
I00
S'o\xaa\xda7\x12\xa5\x14@'
p380
tp381
bag8
(g9
(I0
tp382
g11
tp383
Rp384
(I1
(tg17
I00
S'\xe6\xc7\x86\x9f\x8a\xe1\x14@'
p385
tp386
bag8
(g9
(I0
tp387
g11
tp388
Rp389
(I1
(tg17
I00
S"\xf7D'7\xc8\x1b\x15@"
p390
tp391
bag8
(g9
(I0
tp392
g11
tp393
Rp394
(I1
(tg17
I00
S'\xc0\x15\xd3\xd1\x14T\x15@'
p395
tp396
bag8
(g9
(I0
tp397
g11
tp398
Rp399
(I1
(tg17
I00
S'@\xd7*\x8f\xd0\x8b\x15@'
p400
tp401
bag8
(g9
(I0
tp402
g11
tp403
Rp404
(I1
(tg17
I00
S'\xce\xef:\xe7\x84\xc7\x15@'
p405
tp406
bag8
(g9
(I0
tp407
g11
tp408
Rp409
(I1
(tg17
I00
S'9G\x18\x91\xc6\x02\x16@'
p410
tp411
bag8
(g9
(I0
tp412
g11
tp413
Rp414
(I1
(tg17
I00
S'}0\x86\xfb\xe1<\x16@'
p415
tp416
bag8
(g9
(I0
tp417
g11
tp418
Rp419
(I1
(tg17
I00
S'G[T\xed\xb5y\x16@'
p420
tp421
bag8
(g9
(I0
tp422
g11
tp423
Rp424
(I1
(tg17
I00
S'\xe4\xd8&M\xe2\xaf\x16@'
p425
tp426
bag8
(g9
(I0
tp427
g11
tp428
Rp429
(I1
(tg17
I00
S'\x98\xea\x8b\xa6\x02-\x16@'
p430
tp431
bag8
(g9
(I0
tp432
g11
tp433
Rp434
(I1
(tg17
I00
S'_\xd3<x\x07L\x16@'
p435
tp436
bag8
(g9
(I0
tp437
g11
tp438
Rp439
(I1
(tg17
I00
S'@u\xe8\x07\x1dx\x16@'
p440
tp441
bag8
(g9
(I0
tp442
g11
tp443
Rp444
(I1
(tg17
I00
S'\x99\x86I\xa3\\\xa1\x16@'
p445
tp446
bag8
(g9
(I0
tp447
g11
tp448
Rp449
(I1
(tg17
I00
S'#\xdc\x15uH\xc5\x16@'
p450
tp451
bag8
(g9
(I0
tp452
g11
tp453
Rp454
(I1
(tg17
I00
S'\xf45\xf3\x02/\xe6\x16@'
p455
tp456
bag8
(g9
(I0
tp457
g11
tp458
Rp459
(I1
(tg17
I00
S'\xceA\xecF\xec\x0f\x17@'
p460
tp461
bag8
(g9
(I0
tp462
g11
tp463
Rp464
(I1
(tg17
I00
S'\x1e\xa5\xd0\x85\xdc7\x17@'
p465
tp466
bag8
(g9
(I0
tp467
g11
tp468
Rp469
(I1
(tg17
I00
S'\xf6\xa8M\xb3t^\x17@'
p470
tp471
bag8
(g9
(I0
tp472
g11
tp473
Rp474
(I1
(tg17
I00
S'\xd8\xdbA\x9a\x91\x85\x17@'
p475
tp476
bag8
(g9
(I0
tp477
g11
tp478
Rp479
(I1
(tg17
I00
S'gte\xbd\xd6\xb0\x17@'
p480
tp481
bag8
(g9
(I0
tp482
g11
tp483
Rp484
(I1
(tg17
I00
S'>\xcc\xb3Ur\xdb\x17@'
p485
tp486
bag8
(g9
(I0
tp487
g11
tp488
Rp489
(I1
(tg17
I00
S':\xad\xa2\x91\x0c\x05\x18@'
p490
tp491
bag8
(g9
(I0
tp492
g11
tp493
Rp494
(I1
(tg17
I00
S'uB\xec\xb0\x0c,\x18@'
p495
tp496
bag8
(g9
(I0
tp497
g11
tp498
Rp499
(I1
(tg17
I00
S'\xd9s\x19/\x14W\x18@'
p500
tp501
bag8
(g9
(I0
tp502
g11
tp503
Rp504
(I1
(tg17
I00
S'2\xad\xf8aD\x83\x18@'
p505
tp506
bag8
(g9
(I0
tp507
g11
tp508
Rp509
(I1
(tg17
I00
S'\xac.\xc4>\x14\xac\x18@'
p510
tp511
bag8
(g9
(I0
tp512
g11
tp513
Rp514
(I1
(tg17
I00
S'\x97\xa7\x8d\x0f=\xdb\x18@'
p515
tp516
bag8
(g9
(I0
tp517
g11
tp518
Rp519
(I1
(tg17
I00
S'\x94\xfc\xcb\xca\x85\n\x19@'
p520
tp521
bag8
(g9
(I0
tp522
g11
tp523
Rp524
(I1
(tg17
I00
S'\xe6\n\xc7\xda\xd79\x19@'
p525
tp526
bag8
(g9
(I0
tp527
g11
tp528
Rp529
(I1
(tg17
I00
S'\x8d\xbd\x81\x10\xd5d\x19@'
p530
tp531
bag8
(g9
(I0
tp532
g11
tp533
Rp534
(I1
(tg17
I00
S"i\x06P\xc4'\x99\x19@"
p535
tp536
bag8
(g9
(I0
tp537
g11
tp538
Rp539
(I1
(tg17
I00
S'\x87\x87\xe5\xbc\xf0\xcd\x19@'
p540
tp541
bag8
(g9
(I0
tp542
g11
tp543
Rp544
(I1
(tg17
I00
S'\xb7V\xa9\xe6i\xfa\x19@'
p545
tp546
bag8
(g9
(I0
tp547
g11
tp548
Rp549
(I1
(tg17
I00
S'\xfd\xda+l10\x1a@'
p550
tp551
bag8
(g9
(I0
tp552
g11
tp553
Rp554
(I1
(tg17
I00
S'<yX\x87\xeai\x1a@'
p555
tp556
bag8
(g9
(I0
tp557
g11
tp558
Rp559
(I1
(tg17
I00
S'V\xaf5\xe0\x94\xa0\x1a@'
p560
tp561
bag8
(g9
(I0
tp562
g11
tp563
Rp564
(I1
(tg17
I00
S'\x82;\xd6\xe1\xbf\xd8\x1a@'
p565
tp566
bag8
(g9
(I0
tp567
g11
tp568
Rp569
(I1
(tg17
I00
S'@\x85HH\xc0\x0f\x1b@'
p570
tp571
bag8
(g9
(I0
tp572
g11
tp573
Rp574
(I1
(tg17
I00
S'\no\xfb\xc5\xd8C\x1b@'
p575
tp576
bag8
(g9
(I0
tp577
g11
tp578
Rp579
(I1
(tg17
I00
S'$\xd3.\x0f\nx\x1b@'
p580
tp581
bag8
(g9
(I0
tp582
g11
tp583
Rp584
(I1
(tg17
I00
S')2\x18p^\xb4\x1b@'
p585
tp586
bag8
(g9
(I0
tp587
g11
tp588
Rp589
(I1
(tg17
I00
S'b\xf4\xcds\xf7\xea\x1b@'
p590
tp591
bag8
(g9
(I0
tp592
g11
tp593
Rp594
(I1
(tg17
I00
S'Lk\x9e~\x97)\x1c@'
p595
tp596
bag8
(g9
(I0
tp597
g11
tp598
Rp599
(I1
(tg17
I00
S'\xce\xae\xf3\x08\x0fd\x1c@'
p600
tp601
bag8
(g9
(I0
tp602
g11
tp603
Rp604
(I1
(tg17
I00
S'\xf7\x81\x8b\xc0\x06\x9d\x1c@'
p605
tp606
bag8
(g9
(I0
tp607
g11
tp608
Rp609
(I1
(tg17
I00
S'h\x80|\xdb\xd8\xd7\x1c@'
p610
tp611
bag8
(g9
(I0
tp612
g11
tp613
Rp614
(I1
(tg17
I00
S'\xe1U=\x17\xd4\n\x1d@'
p615
tp616
bag8
(g9
(I0
tp617
g11
tp618
Rp619
(I1
(tg17
I00
S'\x01\xaf\x88e\x98D\x1d@'
p620
tp621
bag8
(g9
(I0
tp622
g11
tp623
Rp624
(I1
(tg17
I00
S'.l\x9a%@\x81\x1d@'
p625
tp626
bag8
(g9
(I0
tp627
g11
tp628
Rp629
(I1
(tg17
I00
S'\xba\xff\x80E\xf1\xb9\x1d@'
p630
tp631
bag8
(g9
(I0
tp632
g11
tp633
Rp634
(I1
(tg17
I00
S'\x04\xb9\x1a\x1a\xe7\xf3\x1d@'
p635
tp636
bag8
(g9
(I0
tp637
g11
tp638
Rp639
(I1
(tg17
I00
S'G\xb3R\xc4\n/\x1e@'
p640
tp641
bag8
(g9
(I0
tp642
g11
tp643
Rp644
(I1
(tg17
I00
S'\xc9\x03C\xecdd\x1e@'
p645
tp646
bag8
(g9
(I0
tp647
g11
tp648
Rp649
(I1
(tg17
I00
S'J\xd8\tdW\x9a\x1e@'
p650
tp651
bag8
(g9
(I0
tp652
g11
tp653
Rp654
(I1
(tg17
I00
S'G\x80r\x9b\x9b\xd4\x1e@'
p655
tp656
bag8
(g9
(I0
tp657
g11
tp658
Rp659
(I1
(tg17
I00
S'\x15\xb2\xd3\xc8\x84\r\x1f@'
p660
tp661
bag8
(g9
(I0
tp662
g11
tp663
Rp664
(I1
(tg17
I00
S'\xcco\xba\x9e\x18@\x1f@'
p665
tp666
bag8
(g9
(I0
tp667
g11
tp668
Rp669
(I1
(tg17
I00
S'?hC\xc2D{\x1f@'
p670
tp671
bag8
(g9
(I0
tp672
g11
tp673
Rp674
(I1
(tg17
I00
S'\x18b\x9e\xf4|\xb4\x1f@'
p675
tp676
bag8
(g9
(I0
tp677
g11
tp678
Rp679
(I1
(tg17
I00
S'H\x17\xd61y\xeb\x1f@'
p680
tp681
bag8
(g9
(I0
tp682
g11
tp683
Rp684
(I1
(tg17
I00
S'\xc2\x87\xb5\x8fZ\x0f @'
p685
tp686
bag8
(g9
(I0
tp687
g11
tp688
Rp689
(I1
(tg17
I00
S'\\G\xbb\x1e\xb7- @'
p690
tp691
bag8
(g9
(I0
tp692
g11
tp693
Rp694
(I1
(tg17
I00
S'|\xe1\x80\x85jI @'
p695
tp696
bag8
(g9
(I0
tp697
g11
tp698
Rp699
(I1
(tg17
I00
S'\xearG\x7f\xfdb @'
p700
tp701
bag8
(g9
(I0
tp702
g11
tp703
Rp704
(I1
(tg17
I00
S'\x02\x94\x88\t\xec~ @'
p705
tp706
bag8
(g9
(I0
tp707
g11
tp708
Rp709
(I1
(tg17
I00
S'\xf6;llf\x99 @'
p710
tp711
bag8
(g9
(I0
tp712
g11
tp713
Rp714
(I1
(tg17
I00
S'\xf69F\xdd\xae\xb7 @'
p715
tp716
bag8
(g9
(I0
tp717
g11
tp718
Rp719
(I1
(tg17
I00
S'\xf8\xea\x1b0S\xd2 @'
p720
tp721
bag8
(g9
(I0
tp722
g11
tp723
Rp724
(I1
(tg17
I00
S'xLjT\xec\xec @'
p725
tp726
bag8
(g9
(I0
tp727
g11
tp728
Rp729
(I1
(tg17
I00
S'p>\xce\xeb\x81\x08!@'
p730
tp731
bag8
(g9
(I0
tp732
g11
tp733
Rp734
(I1
(tg17
I00
S'\xe8AL\x98\xf9!!@'
p735
tp736
bag8
(g9
(I0
tp737
g11
tp738
Rp739
(I1
(tg17
I00
S'\xac\xfd\xbd\xb3x?!@'
p740
tp741
bag8
(g9
(I0
tp742
g11
tp743
Rp744
(I1
(tg17
I00
S"\xacL\xf4\xa7'Z!@"
p745
tp746
baaa(lp747
S'accuracy'
p748
a(lp749
g8
(g9
(I0
tp750
g11
tp751
Rp752
(I1
(tg14
(S'f4'
p753
I0
I1
tp754
Rp755
(I3
S'<'
p756
NNNI-1
I-1
I0
tp757
bI00
S'0\x84\x06?'
p758
tp759
bag8
(g9
(I0
tp760
g11
tp761
Rp762
(I1
(tg755
I00
S'\x18T\x19?'
p763
tp764
bag8
(g9
(I0
tp765
g11
tp766
Rp767
(I1
(tg755
I00
S'qi!?'
p768
tp769
bag8
(g9
(I0
tp770
g11
tp771
Rp772
(I1
(tg755
I00
S'W1)?'
p773
tp774
bag8
(g9
(I0
tp775
g11
tp776
Rp777
(I1
(tg755
I00
S'\x83\xb7/?'
p778
tp779
bag8
(g9
(I0
tp780
g11
tp781
Rp782
(I1
(tg755
I00
S'\xb6\x054?'
p783
tp784
bag8
(g9
(I0
tp785
g11
tp786
Rp787
(I1
(tg755
I00
S'\xa2E6?'
p788
tp789
bag8
(g9
(I0
tp790
g11
tp791
Rp792
(I1
(tg755
I00
S'Z\xfa6?'
p793
tp794
bag8
(g9
(I0
tp795
g11
tp796
Rp797
(I1
(tg755
I00
S'\xe0=7?'
p798
tp799
bag8
(g9
(I0
tp800
g11
tp801
Rp802
(I1
(tg755
I00
S'{\xe86?'
p803
tp804
bag8
(g9
(I0
tp805
g11
tp806
Rp807
(I1
(tg755
I00
S'\xb4\xc86?'
p808
tp809
bag8
(g9
(I0
tp810
g11
tp811
Rp812
(I1
(tg755
I00
S'\x93M6?'
p813
tp814
bag8
(g9
(I0
tp815
g11
tp816
Rp817
(I1
(tg755
I00
S'd\xda5?'
p818
tp819
bag8
(g9
(I0
tp820
g11
tp821
Rp822
(I1
(tg755
I00
S'C_5?'
p823
tp824
bag8
(g9
(I0
tp825
g11
tp826
Rp827
(I1
(tg755
I00
S'\xe2\x075?'
p828
tp829
bag8
(g9
(I0
tp830
g11
tp831
Rp832
(I1
(tg755
I00
S'\xb2\x944?'
p833
tp834
bag8
(g9
(I0
tp835
g11
tp836
Rp837
(I1
(tg755
I00
S'\xd2\xf53?'
p838
tp839
bag8
(g9
(I0
tp840
g11
tp841
Rp842
(I1
(tg755
I00
S'F\xb63?'
p843
tp844
bag8
(g9
(I0
tp845
g11
tp846
Rp847
(I1
(tg755
I00
S'\x95\x8a3?'
p848
tp849
bag8
(g9
(I0
tp850
g11
tp851
Rp852
(I1
(tg755
I00
S'\x9f\xf72?'
p853
tp854
bag8
(g9
(I0
tp855
g11
tp856
Rp857
(I1
(tg755
I00
S'\x08\xbe2?'
p858
tp859
bag8
(g9
(I0
tp860
g11
tp861
Rp862
(I1
(tg755
I00
S'\xadb2?'
p863
tp864
bag8
(g9
(I0
tp865
g11
tp866
Rp867
(I1
(tg755
I00
S'D\x0f2?'
p868
tp869
bag8
(g9
(I0
tp870
g11
tp871
Rp872
(I1
(tg755
I00
S'\xa9\xd71?'
p873
tp874
bag8
(g9
(I0
tp875
g11
tp876
Rp877
(I1
(tg755
I00
S'D\x821?'
p878
tp879
bag8
(g9
(I0
tp880
g11
tp881
Rp882
(I1
(tg755
I00
S'\x88\\1?'
p883
tp884
bag8
(g9
(I0
tp885
g11
tp886
Rp887
(I1
(tg755
I00
S'\x97T1?'
p888
tp889
bag8
(g9
(I0
tp890
g11
tp891
Rp892
(I1
(tg755
I00
S'\xd421?'
p893
tp894
bag8
(g9
(I0
tp895
g11
tp896
Rp897
(I1
(tg755
I00
S'\x18\r1?'
p898
tp899
bag8
(g9
(I0
tp900
g11
tp901
Rp902
(I1
(tg755
I00
S'`\xe50?'
p903
tp904
bag8
(g9
(I0
tp905
g11
tp906
Rp907
(I1
(tg755
I00
S'g\xe10?'
p908
tp909
bag8
(g9
(I0
tp910
g11
tp911
Rp912
(I1
(tg755
I00
S'\xbe\xb10?'
p913
tp914
bag8
(g9
(I0
tp915
g11
tp916
Rp917
(I1
(tg755
I00
S'\x02\x8c0?'
p918
tp919
bag8
(g9
(I0
tp920
g11
tp921
Rp922
(I1
(tg755
I00
S'Y\\0?'
p923
tp924
bag8
(g9
(I0
tp925
g11
tp926
Rp927
(I1
(tg755
I00
S'\x87B0?'
p928
tp929
bag8
(g9
(I0
tp930
g11
tp931
Rp932
(I1
(tg755
I00
S'\xa800?'
p933
tp934
bag8
(g9
(I0
tp935
g11
tp936
Rp937
(I1
(tg755
I00
S'"\xed/?'
p938
tp939
bag8
(g9
(I0
tp940
g11
tp941
Rp942
(I1
(tg755
I00
S'j\xc5/?'
p943
tp944
bag8
(g9
(I0
tp945
g11
tp946
Rp947
(I1
(tg755
I00
S'\xd6\x89/?'
p948
tp949
bag8
(g9
(I0
tp950
g11
tp951
Rp952
(I1
(tg755
I00
S'\x10j/?'
p953
tp954
bag8
(g9
(I0
tp955
g11
tp956
Rp957
(I1
(tg755
I00
S'c</?'
p958
tp959
bag8
(g9
(I0
tp960
g11
tp961
Rp962
(I1
(tg755
I00
S'\x87(/?'
p963
tp964
bag8
(g9
(I0
tp965
g11
tp966
Rp967
(I1
(tg755
I00
S'\xcb\x02/?'
p968
tp969
bag8
(g9
(I0
tp970
g11
tp971
Rp972
(I1
(tg755
I00
S'\x0f\xdd.?'
p973
tp974
bag8
(g9
(I0
tp975
g11
tp976
Rp977
(I1
(tg755
I00
S'E\xbf.?'
p978
tp979
bag8
(g9
(I0
tp980
g11
tp981
Rp982
(I1
(tg755
I00
S't\xa5.?'
p983
tp984
bag8
(g9
(I0
tp985
g11
tp986
Rp987
(I1
(tg755
I00
S'x\xa3.?'
p988
tp989
bag8
(g9
(I0
tp990
g11
tp991
Rp992
(I1
(tg755
I00
S'\x95\x93.?'
p993
tp994
bag8
(g9
(I0
tp995
g11
tp996
Rp997
(I1
(tg755
I00
S'x\xa3.?'
p998
tp999
bag8
(g9
(I0
tp1000
g11
tp1001
Rp1002
(I1
(tg755
I00
S'\x8a\x99.?'
p1003
tp1004
bag8
(g9
(I0
tp1005
g11
tp1006
Rp1007
(I1
(tg755
I00
S'\xd5o.?'
p1008
tp1009
bag8
(g9
(I0
tp1010
g11
tp1011
Rp1012
(I1
(tg755
I00
S'\xeea.?'
p1013
tp1014
bag8
(g9
(I0
tp1015
g11
tp1016
Rp1017
(I1
(tg755
I00
S'\x0fP.?'
p1018
tp1019
bag8
(g9
(I0
tp1020
g11
tp1021
Rp1022
(I1
(tg755
I00
S'\x08T.?'
p1023
tp1024
bag8
(g9
(I0
tp1025
g11
tp1026
Rp1027
(I1
(tg755
I00
S'3<.?'
p1028
tp1029
bag8
(g9
(I0
tp1030
g11
tp1031
Rp1032
(I1
(tg755
I00
S'e .?'
p1033
tp1034
bag8
(g9
(I0
tp1035
g11
tp1036
Rp1037
(I1
(tg755
I00
S'\x90\x08.?'
p1038
tp1039
bag8
(g9
(I0
tp1040
g11
tp1041
Rp1042
(I1
(tg755
I00
S'\xc3\xec-?'
p1043
tp1044
bag8
(g9
(I0
tp1045
g11
tp1046
Rp1047
(I1
(tg755
I00
S'\xa2\xfe-?'
p1048
tp1049
bag8
(g9
(I0
tp1050
g11
tp1051
Rp1052
(I1
(tg755
I00
S'\xbc\xf0-?'
p1053
tp1054
bag8
(g9
(I0
tp1055
g11
tp1056
Rp1057
(I1
(tg755
I00
S'\x9f\x00.?'
p1058
tp1059
bag8
(g9
(I0
tp1060
g11
tp1061
Rp1062
(I1
(tg755
I00
S'\xb1\xf6-?'
p1063
tp1064
bag8
(g9
(I0
tp1065
g11
tp1066
Rp1067
(I1
(tg755
I00
S'\xa2\xfe-?'
p1068
tp1069
bag8
(g9
(I0
tp1070
g11
tp1071
Rp1072
(I1
(tg755
I00
S'\xaa\xfa-?'
p1073
tp1074
bag8
(g9
(I0
tp1075
g11
tp1076
Rp1077
(I1
(tg755
I00
S'A4.?'
p1078
tp1079
bag8
(g9
(I0
tp1080
g11
tp1081
Rp1082
(I1
(tg755
I00
S'w\x16.?'
p1083
tp1084
bag8
(g9
(I0
tp1085
g11
tp1086
Rp1087
(I1
(tg755
I00
S'\xb8\xf2-?'
p1088
tp1089
bag8
(g9
(I0
tp1090
g11
tp1091
Rp1092
(I1
(tg755
I00
S'\x8d\n.?'
p1093
tp1094
bag8
(g9
(I0
tp1095
g11
tp1096
Rp1097
(I1
(tg755
I00
S'6:.?'
p1098
tp1099
bag8
(g9
(I0
tp1100
g11
tp1101
Rp1102
(I1
(tg755
I00
S'\x00X.?'
p1103
tp1104
bag8
(g9
(I0
tp1105
g11
tp1106
Rp1107
(I1
(tg755
I00
S'!F.?'
p1108
tp1109
bag8
(g9
(I0
tp1110
g11
tp1111
Rp1112
(I1
(tg755
I00
S'L..?'
p1113
tp1114
bag8
(g9
(I0
tp1115
g11
tp1116
Rp1117
(I1
(tg755
I00
S'E2.?'
p1118
tp1119
bag8
(g9
(I0
tp1120
g11
tp1121
Rp1122
(I1
(tg755
I00
S'\x1dH.?'
p1123
tp1124
bag8
(g9
(I0
tp1125
g11
tp1126
Rp1127
(I1
(tg755
I00
S'\x16L.?'
p1128
tp1129
bag8
(g9
(I0
tp1130
g11
tp1131
Rp1132
(I1
(tg755
I00
S'(B.?'
p1133
tp1134
bag8
(g9
(I0
tp1135
g11
tp1136
Rp1137
(I1
(tg755
I00
S'\x16L.?'
p1138
tp1139
bag8
(g9
(I0
tp1140
g11
tp1141
Rp1142
(I1
(tg755
I00
S'\x1dH.?'
p1143
tp1144
bag8
(g9
(I0
tp1145
g11
tp1146
Rp1147
(I1
(tg755
I00
S'\x1aJ.?'
p1148
tp1149
bag8
(g9
(I0
tp1150
g11
tp1151
Rp1152
(I1
(tg755
I00
S'\x0fP.?'
p1153
tp1154
bag8
(g9
(I0
tp1155
g11
tp1156
Rp1157
(I1
(tg755
I00
S'\x16L.?'
p1158
tp1159
bag8
(g9
(I0
tp1160
g11
tp1161
Rp1162
(I1
(tg755
I00
S'\x82\x10.?'
p1163
tp1164
bag8
(g9
(I0
tp1165
g11
tp1166
Rp1167
(I1
(tg755
I00
S'P,.?'
p1168
tp1169
bag8
(g9
(I0
tp1170
g11
tp1171
Rp1172
(I1
(tg755
I00
S'\x90\x08.?'
p1173
tp1174
bag8
(g9
(I0
tp1175
g11
tp1176
Rp1177
(I1
(tg755
I00
S'3<.?'
p1178
tp1179
bag8
(g9
(I0
tp1180
g11
tp1181
Rp1182
(I1
(tg755
I00
S'\x1aJ.?'
p1183
tp1184
bag8
(g9
(I0
tp1185
g11
tp1186
Rp1187
(I1
(tg755
I00
S'\xd5o.?'
p1188
tp1189
bag8
(g9
(I0
tp1190
g11
tp1191
Rp1192
(I1
(tg755
I00
S'\xcbu.?'
p1193
tp1194
bag8
(g9
(I0
tp1195
g11
tp1196
Rp1197
(I1
(tg755
I00
S'\xces.?'
p1198
tp1199
bag8
(g9
(I0
tp1200
g11
tp1201
Rp1202
(I1
(tg755
I00
S'\x9c\x8f.?'
p1203
tp1204
bag8
(g9
(I0
tp1205
g11
tp1206
Rp1207
(I1
(tg755
I00
S'x\xa3.?'
p1208
tp1209
bag8
(g9
(I0
tp1210
g11
tp1211
Rp1212
(I1
(tg755
I00
S'\x8d\x97.?'
p1213
tp1214
bag8
(g9
(I0
tp1215
g11
tp1216
Rp1217
(I1
(tg755
I00
S'\x8a\x99.?'
p1218
tp1219
bag8
(g9
(I0
tp1220
g11
tp1221
Rp1222
(I1
(tg755
I00
S'\xae\x85.?'
p1223
tp1224
bag8
(g9
(I0
tp1225
g11
tp1226
Rp1227
(I1
(tg755
I00
S'\xb9\x7f.?'
p1228
tp1229
bag8
(g9
(I0
tp1230
g11
tp1231
Rp1232
(I1
(tg755
I00
S'\xb9\x7f.?'
p1233
tp1234
bag8
(g9
(I0
tp1235
g11
tp1236
Rp1237
(I1
(tg755
I00
S'\x9c\x8f.?'
p1238
tp1239
bag8
(g9
(I0
tp1240
g11
tp1241
Rp1242
(I1
(tg755
I00
S'\xb1\x83.?'
p1243
tp1244
bag8
(g9
(I0
tp1245
g11
tp1246
Rp1247
(I1
(tg755
I00
S'\xb5\x81.?'
p1248
tp1249
bag8
(g9
(I0
tp1250
g11
tp1251
Rp1252
(I1
(tg755
I00
S'\xa3\x8b.?'
p1253
tp1254
bag8
(g9
(I0
tp1255
g11
tp1256
Rp1257
(I1
(tg755
I00
S'\xc3y.?'
p1258
tp1259
bag8
(g9
(I0
tp1260
g11
tp1261
Rp1262
(I1
(tg755
I00
S'\xcbu.?'
p1263
tp1264
bag8
(g9
(I0
tp1265
g11
tp1266
Rp1267
(I1
(tg755
I00
S'\xbc}.?'
p1268
tp1269
bag8
(g9
(I0
tp1270
g11
tp1271
Rp1272
(I1
(tg755
I00
S'\xc7w.?'
p1273
tp1274
bag8
(g9
(I0
tp1275
g11
tp1276
Rp1277
(I1
(tg755
I00
S'\xbc}.?'
p1278
tp1279
bag8
(g9
(I0
tp1280
g11
tp1281
Rp1282
(I1
(tg755
I00
S'\xbc}.?'
p1283
tp1284
bag8
(g9
(I0
tp1285
g11
tp1286
Rp1287
(I1
(tg755
I00
S'\xddk.?'
p1288
tp1289
bag8
(g9
(I0
tp1290
g11
tp1291
Rp1292
(I1
(tg755
I00
S'\xe4g.?'
p1293
tp1294
bag8
(g9
(I0
tp1295
g11
tp1296
Rp1297
(I1
(tg755
I00
S'\xddk.?'
p1298
tp1299
bag8
(g9
(I0
tp1300
g11
tp1301
Rp1302
(I1
(tg755
I00
S'\xd2q.?'
p1303
tp1304
bag8
(g9
(I0
tp1305
g11
tp1306
Rp1307
(I1
(tg755
I00
S'\xd9m.?'
p1308
tp1309
bag8
(g9
(I0
tp1310
g11
tp1311
Rp1312
(I1
(tg755
I00
S'\xe7e.?'
p1313
tp1314
bag8
(g9
(I0
tp1315
g11
tp1316
Rp1317
(I1
(tg755
I00
S'\xddk.?'
p1318
tp1319
bag8
(g9
(I0
tp1320
g11
tp1321
Rp1322
(I1
(tg755
I00
S'\xe0i.?'
p1323
tp1324
bag8
(g9
(I0
tp1325
g11
tp1326
Rp1327
(I1
(tg755
I00
S'\xd5o.?'
p1328
tp1329
bag8
(g9
(I0
tp1330
g11
tp1331
Rp1332
(I1
(tg755
I00
S'\xe4g.?'
p1333
tp1334
bag8
(g9
(I0
tp1335
g11
tp1336
Rp1337
(I1
(tg755
I00
S'\xe4g.?'
p1338
tp1339
bag8
(g9
(I0
tp1340
g11
tp1341
Rp1342
(I1
(tg755
I00
S'\xd5o.?'
p1343
tp1344
bag8
(g9
(I0
tp1345
g11
tp1346
Rp1347
(I1
(tg755
I00
S'\xces.?'
p1348
tp1349
bag8
(g9
(I0
tp1350
g11
tp1351
Rp1352
(I1
(tg755
I00
S'\xd9m.?'
p1353
tp1354
bag8
(g9
(I0
tp1355
g11
tp1356
Rp1357
(I1
(tg755
I00
S'\xe7e.?'
p1358
tp1359
bag8
(g9
(I0
tp1360
g11
tp1361
Rp1362
(I1
(tg755
I00
S'\xebc.?'
p1363
tp1364
bag8
(g9
(I0
tp1365
g11
tp1366
Rp1367
(I1
(tg755
I00
S'\xe0i.?'
p1368
tp1369
bag8
(g9
(I0
tp1370
g11
tp1371
Rp1372
(I1
(tg755
I00
S'\xebc.?'
p1373
tp1374
bag8
(g9
(I0
tp1375
g11
tp1376
Rp1377
(I1
(tg755
I00
S'\xfdY.?'
p1378
tp1379
bag8
(g9
(I0
tp1380
g11
tp1381
Rp1382
(I1
(tg755
I00
S'\xf6].?'
p1383
tp1384
bag8
(g9
(I0
tp1385
g11
tp1386
Rp1387
(I1
(tg755
I00
S'\x08T.?'
p1388
tp1389
bag8
(g9
(I0
tp1390
g11
tp1391
Rp1392
(I1
(tg755
I00
S'\x08T.?'
p1393
tp1394
bag8
(g9
(I0
tp1395
g11
tp1396
Rp1397
(I1
(tg755
I00
S'\x0fP.?'
p1398
tp1399
bag8
(g9
(I0
tp1400
g11
tp1401
Rp1402
(I1
(tg755
I00
S'\xf9[.?'
p1403
tp1404
bag8
(g9
(I0
tp1405
g11
tp1406
Rp1407
(I1
(tg755
I00
S'\xfdY.?'
p1408
tp1409
bag8
(g9
(I0
tp1410
g11
tp1411
Rp1412
(I1
(tg755
I00
S'\xf2_.?'
p1413
tp1414
bag8
(g9
(I0
tp1415
g11
tp1416
Rp1417
(I1
(tg755
I00
S'\xf2_.?'
p1418
tp1419
bag8
(g9
(I0
tp1420
g11
tp1421
Rp1422
(I1
(tg755
I00
S'\xe4g.?'
p1423
tp1424
bag8
(g9
(I0
tp1425
g11
tp1426
Rp1427
(I1
(tg755
I00
S'\xe4g.?'
p1428
tp1429
bag8
(g9
(I0
tp1430
g11
tp1431
Rp1432
(I1
(tg755
I00
S'\xf2_.?'
p1433
tp1434
bag8
(g9
(I0
tp1435
g11
tp1436
Rp1437
(I1
(tg755
I00
S'\xf2_.?'
p1438
tp1439
bag8
(g9
(I0
tp1440
g11
tp1441
Rp1442
(I1
(tg755
I00
S'\xf9[.?'
p1443
tp1444
bag8
(g9
(I0
tp1445
g11
tp1446
Rp1447
(I1
(tg755
I00
S'\xfdY.?'
p1448
tp1449
bag8
(g9
(I0
tp1450
g11
tp1451
Rp1452
(I1
(tg755
I00
S'\x1aJ.?'
p1453
tp1454
bag8
(g9
(I0
tp1455
g11
tp1456
Rp1457
(I1
(tg755
I00
S'\x1aJ.?'
p1458
tp1459
bag8
(g9
(I0
tp1460
g11
tp1461
Rp1462
(I1
(tg755
I00
S'\x0bR.?'
p1463
tp1464
bag8
(g9
(I0
tp1465
g11
tp1466
Rp1467
(I1
(tg755
I00
S'\x12N.?'
p1468
tp1469
bag8
(g9
(I0
tp1470
g11
tp1471
Rp1472
(I1
(tg755
I00
S'\x0fP.?'
p1473
tp1474
bag8
(g9
(I0
tp1475
g11
tp1476
Rp1477
(I1
(tg755
I00
S'\x0fP.?'
p1478
tp1479
bag8
(g9
(I0
tp1480
g11
tp1481
Rp1482
(I1
(tg755
I00
S'\x16L.?'
p1483
tp1484
baaatp1485
Rp1486
.